target datalayout = "e-m:e-p270:32:32-p271:32:32-p272:64:64-i64:64-i128:128-f80:128-n8:16:32:64-S128"
target triple = "x86_64-unknown-linux-gnu"

%struct.KVMRouteChange = type { ptr, i32 }
%struct.MemoryRegion = type { %struct.Object, i8, i8, i8, i8, i8, i8, i8, i8, i8, i8, ptr, ptr, ptr, ptr, ptr, ptr, i32, i128, i64, ptr, i64, i8, i8, i8, i8, i8, ptr, i64, i32, %union.anon, %union.anon.0, %union.anon.1, ptr, i32, ptr, ptr, i8 }
%struct.Object = type { ptr, ptr, ptr, i32, ptr }
%union.anon = type { %struct.QTailQLink }
%struct.QTailQLink = type { ptr, ptr }
%union.anon.0 = type { %struct.QTailQLink }
%union.anon.1 = type { %struct.QTailQLink }
%struct.VFIOPCIDevice = type { %struct.PCIDevice, %struct.VFIODevice, %struct.VFIOINTx, i32, ptr, i64, i32, i64, ptr, i32, ptr, ptr, i32, i32, [6 x %struct.VFIOBAR], ptr, ptr, %struct.PCIHostDeviceAddress, %struct.QemuUUID, %struct.EventNotifier, %struct.EventNotifier, ptr, i32, i32, i32, i32, i32, i32, i32, i32, i32, i32, i32, i8, i8, i8, i8, i8, i8, i8, i8, i8, i8, i8, i8, i8, i8, i32, i8, i8, ptr, %struct.Notifier }
%struct.PCIDevice = type { %struct.DeviceState, i8, i8, ptr, ptr, ptr, ptr, ptr, i32, %struct.PCIReqIDCache, [64 x i8], [7 x %struct.PCIIORegion], %struct.AddressSpace, %struct.MemoryRegion, %struct.MemoryRegion, ptr, ptr, [3 x ptr], i8, i8, i32, i8, i32, ptr, ptr, ptr, ptr, ptr, ptr, %struct.MemoryRegion, %struct.MemoryRegion, %struct.MemoryRegion, ptr, i8, i32, i8, %struct.PCIExpressDevice, ptr, ptr, i32, i8, %struct.MemoryRegion, i32, ptr, ptr, ptr, ptr, ptr, i32 }
%struct.DeviceState = type { %struct.Object, ptr, ptr, i8, i8, i64, ptr, i32, i8, ptr, %struct.NamedGPIOListHead, %struct.NamedClockListHead, %struct.BusStateHead, i32, i32, i32, %struct.ResettableState, ptr, %struct.MemReentrancyGuard }
%struct.NamedGPIOListHead = type { ptr }
%struct.NamedClockListHead = type { ptr }
%struct.BusStateHead = type { ptr }
%struct.ResettableState = type { i32, i8, i8 }
%struct.MemReentrancyGuard = type { i8 }
%struct.PCIReqIDCache = type { ptr, i32 }
%struct.PCIIORegion = type { i64, i64, i8, ptr, ptr }
%struct.AddressSpace = type { %struct.rcu_head, ptr, ptr, ptr, i32, i32, ptr, %union.anon.4, %union.anon.5 }
%struct.rcu_head = type { ptr, ptr }
%union.anon.4 = type { %struct.QTailQLink }
%union.anon.5 = type { %struct.QTailQLink }
%struct.PCIExpressDevice = type { i8, i8, i8, i16, %struct.PCIEAERLog, i16, i16, i16, %struct.PCIESriovPF, %struct.PCIESriovVF }
%struct.PCIEAERLog = type { i16, i16, ptr }
%struct.PCIESriovPF = type { i16, [7 x i8], ptr, ptr }
%struct.PCIESriovVF = type { ptr, i16 }
%struct.VFIODevice = type { %struct.anon.6, %struct.anon.7, %struct.anon.8, ptr, ptr, ptr, ptr, ptr, i32, i32, i8, i8, i8, i8, i32, ptr, i32, i32, i32, ptr, ptr, i32, i8, i8 }
%struct.anon.6 = type { ptr, ptr }
%struct.anon.7 = type { ptr, ptr }
%struct.anon.8 = type { ptr, ptr }
%struct.VFIOINTx = type { i8, i8, i8, %struct.EventNotifier, %struct.EventNotifier, %struct.PCIINTxRoute, i32, ptr }
%struct.PCIINTxRoute = type { i32, i32 }
%struct.VFIOBAR = type { %struct.VFIORegion, ptr, i64, i8, i8, i8, %struct.anon.9 }
%struct.VFIORegion = type { ptr, i64, ptr, i64, i32, i32, ptr, i8 }
%struct.anon.9 = type { ptr }
%struct.PCIHostDeviceAddress = type { i32, i32, i32, i32 }
%struct.QemuUUID = type { %union.anon.10 }
%union.anon.10 = type { %struct.anon.11 }
%struct.anon.11 = type { i32, i16, i16, i8, i8, [6 x i8] }
%struct.EventNotifier = type { i32, i32, i8 }
%struct.Notifier = type { ptr, %struct.anon.12 }
%struct.anon.12 = type { ptr, ptr }
%struct.VFIOMSIXInfo = type { i8, i8, i16, i32, i32, ptr, i8 }
%struct.timeval = type { i64, i64 }
%struct.vfio_irq_set = type { i32, i32, i32, i32, i32, [0 x i8] }

@.str.12 = private unnamed_addr constant [22 x i8] c"../qemu/hw/vfio/pci.c\00", align 1
@trace_events_enabled_count = external global i32, align 4
@message_with_timestamp = external global i8, align 1
@qemu_loglevel = external global i32, align 4
@.str.34 = private unnamed_addr constant [29 x i8] c"!vdev->defer_kvm_irq_routing\00", align 1
@__PRETTY_FUNCTION__.vfio_prepare_kvm_msi_virq_batch = private unnamed_addr constant [54 x i8] c"void vfio_prepare_kvm_msi_virq_batch(VFIOPCIDevice *)\00", align 1
@vfio_route_change = internal global %struct.KVMRouteChange zeroinitializer, align 8
@kvm_state = external global ptr, align 8
@.str.50 = private unnamed_addr constant [39 x i8] c"vfio: msix_set_vector_notifiers failed\00", align 1
@.str.51 = private unnamed_addr constant [35 x i8] c"vfio: failed to enable vectors, %d\00", align 1
@.str.52 = private unnamed_addr constant [33 x i8] c"vfio: failed to enable MSI-X, %d\00", align 1
@_TRACE_VFIO_MSIX_ENABLE_DSTATE = external global i16, align 2
@.str.59 = private unnamed_addr constant [37 x i8] c"%d@%zu.%06zu:vfio_msix_enable  (%s)\0A\00", align 1
@.str.60 = private unnamed_addr constant [24 x i8] c"vfio_msix_enable  (%s)\0A\00", align 1

; Function Attrs: nounwind sspstrong uwtable
define internal zeroext i1 @qemu_loglevel_mask(i32 noundef %mask) #0 {
entry:
  %mask.addr = alloca i32, align 4
  store i32 %mask, ptr %mask.addr, align 4
  %0 = load i32, ptr @qemu_loglevel, align 4
  %1 = load i32, ptr %mask.addr, align 4
  %and = and i32 %0, %1
  %cmp = icmp ne i32 %and, 0
  ret i1 %cmp
}

; Function Attrs: nounwind sspstrong uwtable
define internal void @_nocheck__trace_vfio_msix_enable(ptr noundef %name) #0 {
entry:
  %name.addr = alloca ptr, align 8
  %_now = alloca %struct.timeval, align 8
  store ptr %name, ptr %name.addr, align 8
  %0 = load i32, ptr @trace_events_enabled_count, align 4
  %tobool = icmp ne i32 %0, 0
  %lnot = xor i1 %tobool, true
  %lnot1 = xor i1 %lnot, true
  %lnot.ext = zext i1 %lnot1 to i32
  %conv = sext i32 %lnot.ext to i64
  %tobool2 = icmp ne i64 %conv, 0
  br i1 %tobool2, label %land.lhs.true, label %if.end11

land.lhs.true:                                    ; preds = %entry
  %1 = load i16, ptr @_TRACE_VFIO_MSIX_ENABLE_DSTATE, align 2
  %conv3 = zext i16 %1 to i32
  %tobool4 = icmp ne i32 %conv3, 0
  br i1 %tobool4, label %land.lhs.true5, label %if.end11

land.lhs.true5:                                   ; preds = %land.lhs.true
  %call = call zeroext i1 @qemu_loglevel_mask(i32 noundef 32768)
  br i1 %call, label %if.then, label %if.end11

if.then:                                          ; preds = %land.lhs.true5
  %2 = load i8, ptr @message_with_timestamp, align 1
  %tobool7 = trunc i8 %2 to i1
  br i1 %tobool7, label %if.then8, label %if.else

if.then8:                                         ; preds = %if.then
  %call9 = call i32 @gettimeofday(ptr noundef %_now, ptr noundef null) #16
  %call10 = call i32 @qemu_get_thread_id()
  %tv_sec = getelementptr inbounds %struct.timeval, ptr %_now, i32 0, i32 0
  %3 = load i64, ptr %tv_sec, align 8
  %tv_usec = getelementptr inbounds %struct.timeval, ptr %_now, i32 0, i32 1
  %4 = load i64, ptr %tv_usec, align 8
  %5 = load ptr, ptr %name.addr, align 8
  call void (ptr, ...) @qemu_log(ptr noundef @.str.59, i32 noundef %call10, i64 noundef %3, i64 noundef %4, ptr noundef %5)
  br label %if.end

if.else:                                          ; preds = %if.then
  %6 = load ptr, ptr %name.addr, align 8
  call void (ptr, ...) @qemu_log(ptr noundef @.str.60, ptr noundef %6)
  br label %if.end

if.end:                                           ; preds = %if.else, %if.then8
  br label %if.end11

if.end11:                                         ; preds = %if.end, %land.lhs.true5, %land.lhs.true, %entry
  ret void
}

; Function Attrs: nounwind sspstrong uwtable
define internal void @g_autoptr_cleanup_generic_gfree(ptr noundef %p) #0 {
entry:
  %p.addr = alloca ptr, align 8
  %pp = alloca ptr, align 8
  store ptr %p, ptr %p.addr, align 8
  %0 = load ptr, ptr %p.addr, align 8
  store ptr %0, ptr %pp, align 8
  %1 = load ptr, ptr %pp, align 8
  %2 = load ptr, ptr %1, align 8
  call void @g_free(ptr noundef %2)
  ret void
}

; Function Attrs: nounwind sspstrong uwtable
define internal { ptr, i32 } @kvm_irqchip_begin_route_changes(ptr noundef %s) #0 {
entry:
  %retval = alloca %struct.KVMRouteChange, align 8
  %s.addr = alloca ptr, align 8
  store ptr %s, ptr %s.addr, align 8
  %s1 = getelementptr inbounds %struct.KVMRouteChange, ptr %retval, i32 0, i32 0
  %0 = load ptr, ptr %s.addr, align 8
  store ptr %0, ptr %s1, align 8
  %changes = getelementptr inbounds %struct.KVMRouteChange, ptr %retval, i32 0, i32 1
  store i32 0, ptr %changes, align 8
  %1 = load { ptr, i32 }, ptr %retval, align 8
  ret { ptr, i32 } %1
}

; Function Attrs: nounwind sspstrong uwtable
define internal void @trace_vfio_msix_enable(ptr noundef %name) #0 {
entry:
  %name.addr = alloca ptr, align 8
  store ptr %name, ptr %name.addr, align 8
  %0 = load ptr, ptr %name.addr, align 8
  call void @_nocheck__trace_vfio_msix_enable(ptr noundef %0)
  ret void
}

; Function Attrs: nounwind sspstrong uwtable
define internal i32 @vfio_enable_msix_no_vec(ptr noundef %vdev) #0 {
entry:
  %vdev.addr = alloca ptr, align 8
  %irq_set = alloca ptr, align 8
  %ret = alloca i32, align 4
  %argsz = alloca i32, align 4
  %fd = alloca ptr, align 8
  store ptr %vdev, ptr %vdev.addr, align 8
  store ptr null, ptr %irq_set, align 8
  store i32 0, ptr %ret, align 4
  store i32 24, ptr %argsz, align 4
  %0 = load i32, ptr %argsz, align 4
  %conv = sext i32 %0 to i64
  %call = call noalias ptr @g_malloc0(i64 noundef %conv) #18
  store ptr %call, ptr %irq_set, align 8
  %1 = load i32, ptr %argsz, align 4
  %2 = load ptr, ptr %irq_set, align 8
  %argsz1 = getelementptr inbounds %struct.vfio_irq_set, ptr %2, i32 0, i32 0
  store i32 %1, ptr %argsz1, align 4
  %3 = load ptr, ptr %irq_set, align 8
  %flags = getelementptr inbounds %struct.vfio_irq_set, ptr %3, i32 0, i32 1
  store i32 36, ptr %flags, align 4
  %4 = load ptr, ptr %irq_set, align 8
  %index = getelementptr inbounds %struct.vfio_irq_set, ptr %4, i32 0, i32 2
  store i32 2, ptr %index, align 4
  %5 = load ptr, ptr %irq_set, align 8
  %start = getelementptr inbounds %struct.vfio_irq_set, ptr %5, i32 0, i32 3
  store i32 0, ptr %start, align 4
  %6 = load ptr, ptr %irq_set, align 8
  %count = getelementptr inbounds %struct.vfio_irq_set, ptr %6, i32 0, i32 4
  store i32 1, ptr %count, align 4
  %7 = load ptr, ptr %irq_set, align 8
  %data = getelementptr inbounds %struct.vfio_irq_set, ptr %7, i32 0, i32 5
  store ptr %data, ptr %fd, align 8
  %8 = load ptr, ptr %fd, align 8
  store i32 -1, ptr %8, align 4
  %9 = load ptr, ptr %vdev.addr, align 8
  %vbasedev = getelementptr inbounds %struct.VFIOPCIDevice, ptr %9, i32 0, i32 1
  %fd2 = getelementptr inbounds %struct.VFIODevice, ptr %vbasedev, i32 0, i32 8
  %10 = load i32, ptr %fd2, align 8
  %11 = load ptr, ptr %irq_set, align 8
  %call3 = call i32 (i32, i64, ...) @ioctl(i32 noundef %10, i64 noundef 15214, ptr noundef %11) #16
  store i32 %call3, ptr %ret, align 4
  %12 = load i32, ptr %ret, align 4
  call void @g_autoptr_cleanup_generic_gfree(ptr noundef %irq_set)
  ret i32 %12
}

; Function Attrs: nounwind sspstrong uwtable
define internal void @vfio_prepare_kvm_msi_virq_batch(ptr noundef %vdev) #0 {
entry:
  %vdev.addr = alloca ptr, align 8
  %tmp = alloca %struct.KVMRouteChange, align 8
  store ptr %vdev, ptr %vdev.addr, align 8
  %0 = load ptr, ptr %vdev.addr, align 8
  %defer_kvm_irq_routing = getelementptr inbounds %struct.VFIOPCIDevice, ptr %0, i32 0, i32 48
  %1 = load i8, ptr %defer_kvm_irq_routing, align 8
  %tobool = trunc i8 %1 to i1
  br i1 %tobool, label %if.else, label %if.then

if.then:                                          ; preds = %entry
  br label %if.end

if.else:                                          ; preds = %entry
  call void @__assert_fail(ptr noundef @.str.34, ptr noundef @.str.12, i32 noundef 644, ptr noundef @__PRETTY_FUNCTION__.vfio_prepare_kvm_msi_virq_batch) #17
  unreachable

if.end:                                           ; preds = %if.then
  %2 = load ptr, ptr %vdev.addr, align 8
  %defer_kvm_irq_routing1 = getelementptr inbounds %struct.VFIOPCIDevice, ptr %2, i32 0, i32 48
  store i8 1, ptr %defer_kvm_irq_routing1, align 8
  %3 = load ptr, ptr @kvm_state, align 8
  %call = call { ptr, i32 } @kvm_irqchip_begin_route_changes(ptr noundef %3)
  %4 = getelementptr inbounds { ptr, i32 }, ptr %tmp, i32 0, i32 0
  %5 = extractvalue { ptr, i32 } %call, 0
  store ptr %5, ptr %4, align 8
  %6 = getelementptr inbounds { ptr, i32 }, ptr %tmp, i32 0, i32 1
  %7 = extractvalue { ptr, i32 } %call, 1
  store i32 %7, ptr %6, align 8
  call void @llvm.memcpy.p0.p0.i64(ptr align 8 @vfio_route_change, ptr align 8 %tmp, i64 16, i1 false)
  ret void
}

; Function Attrs: nounwind sspstrong uwtable
define internal void @vfio_msix_enable(ptr noundef %vdev) #0 {
entry:
  %vdev.addr = alloca ptr, align 8
  %ret = alloca i32, align 4
  store ptr %vdev, ptr %vdev.addr, align 8
  %0 = load ptr, ptr %vdev.addr, align 8
  call void @vfio_disable_interrupts(ptr noundef %0)
  %1 = load ptr, ptr %vdev.addr, align 8
  %msix = getelementptr inbounds %struct.VFIOPCIDevice, ptr %1, i32 0, i32 11
  %2 = load ptr, ptr %msix, align 8
  %entries = getelementptr inbounds %struct.VFIOMSIXInfo, ptr %2, i32 0, i32 2
  %3 = load i16, ptr %entries, align 2
  %conv = zext i16 %3 to i64
  %call = call noalias ptr @g_malloc0_n(i64 noundef %conv, i64 noundef 40) #15
  %4 = load ptr, ptr %vdev.addr, align 8
  %msi_vectors = getelementptr inbounds %struct.VFIOPCIDevice, ptr %4, i32 0, i32 10
  store ptr %call, ptr %msi_vectors, align 16
  %5 = load ptr, ptr %vdev.addr, align 8
  %interrupt = getelementptr inbounds %struct.VFIOPCIDevice, ptr %5, i32 0, i32 13
  store i32 3, ptr %interrupt, align 4
  %6 = load ptr, ptr %vdev.addr, align 8
  call void @vfio_prepare_kvm_msi_virq_batch(ptr noundef %6)
  %7 = load ptr, ptr %vdev.addr, align 8
  %pdev = getelementptr inbounds %struct.VFIOPCIDevice, ptr %7, i32 0, i32 0
  %call1 = call i32 @msix_set_vector_notifiers(ptr noundef %pdev, ptr noundef @vfio_msix_vector_use, ptr noundef @vfio_msix_vector_release, ptr noundef null)
  %tobool = icmp ne i32 %call1, 0
  br i1 %tobool, label %if.then, label %if.end

if.then:                                          ; preds = %entry
  call void (ptr, ...) @error_report(ptr noundef @.str.50)
  br label %if.end

if.end:                                           ; preds = %if.then, %entry
  %8 = load ptr, ptr %vdev.addr, align 8
  call void @vfio_commit_kvm_msi_virq_batch(ptr noundef %8)
  %9 = load ptr, ptr %vdev.addr, align 8
  %nr_vectors = getelementptr inbounds %struct.VFIOPCIDevice, ptr %9, i32 0, i32 12
  %10 = load i32, ptr %nr_vectors, align 16
  %tobool2 = icmp ne i32 %10, 0
  br i1 %tobool2, label %if.then3, label %if.else

if.then3:                                         ; preds = %if.end
  %11 = load ptr, ptr %vdev.addr, align 8
  %call4 = call i32 @vfio_enable_vectors(ptr noundef %11, i1 noundef zeroext true)
  store i32 %call4, ptr %ret, align 4
  %12 = load i32, ptr %ret, align 4
  %tobool5 = icmp ne i32 %12, 0
  br i1 %tobool5, label %if.then6, label %if.end7

if.then6:                                         ; preds = %if.then3
  %13 = load i32, ptr %ret, align 4
  call void (ptr, ...) @error_report(ptr noundef @.str.51, i32 noundef %13)
  br label %if.end7

if.end7:                                          ; preds = %if.then6, %if.then3
  br label %if.end12

if.else:                                          ; preds = %if.end
  %14 = load ptr, ptr %vdev.addr, align 8
  %call8 = call i32 @vfio_enable_msix_no_vec(ptr noundef %14)
  store i32 %call8, ptr %ret, align 4
  %15 = load i32, ptr %ret, align 4
  %tobool9 = icmp ne i32 %15, 0
  br i1 %tobool9, label %if.then10, label %if.end11

if.then10:                                        ; preds = %if.else
  %16 = load i32, ptr %ret, align 4
  call void (ptr, ...) @error_report(ptr noundef @.str.52, i32 noundef %16)
  br label %if.end11

if.end11:                                         ; preds = %if.then10, %if.else
  br label %if.end12

if.end12:                                         ; preds = %if.end11, %if.end7
  %17 = load ptr, ptr %vdev.addr, align 8
  %vbasedev = getelementptr inbounds %struct.VFIOPCIDevice, ptr %17, i32 0, i32 1
  %name = getelementptr inbounds %struct.VFIODevice, ptr %vbasedev, i32 0, i32 6
  %18 = load ptr, ptr %name, align 8
  call void @trace_vfio_msix_enable(ptr noundef %18)
  ret void
}