; Function Attrs: nounwind sspstrong uwtable
define internal fastcc void @vfio_msix_enable(ptr noundef %vdev) unnamed_addr #0 {
entry:
  %_now.i.i = alloca %struct.timeval, align 8
  tail call fastcc void @vfio_disable_interrupts(ptr noundef %vdev)
  %msix = getelementptr inbounds nuw i8, ptr %vdev, i64 2872
  %0 = load ptr, ptr %msix, align 8
  %entries = getelementptr inbounds nuw i8, ptr %0, i64 2
  %1 = load i16, ptr %entries, align 2
  %conv = zext i16 %1 to i64
  %call = tail call noalias ptr @g_malloc0_n(i64 noundef %conv, i64 noundef 40) #25
  %msi_vectors = getelementptr inbounds nuw i8, ptr %vdev, i64 2864
  store ptr %call, ptr %msi_vectors, align 16
  %interrupt = getelementptr inbounds nuw i8, ptr %vdev, i64 2884
  store i32 3, ptr %interrupt, align 4
  %defer_kvm_irq_routing.i = getelementptr inbounds nuw i8, ptr %vdev, i64 3560
  %2 = load i8, ptr %defer_kvm_irq_routing.i, align 8
  %tobool.i = trunc i8 %2 to i1
  br i1 %tobool.i, label %if.else.i, label %vfio_prepare_kvm_msi_virq_batch.exit

if.else.i:                                        ; preds = %entry
  tail call void @__assert_fail(ptr noundef nonnull @.str.34, ptr noundef nonnull @.str.12, i32 noundef 644, ptr noundef nonnull @__PRETTY_FUNCTION__.vfio_prepare_kvm_msi_virq_batch) #22
  unreachable

vfio_prepare_kvm_msi_virq_batch.exit:             ; preds = %entry
  store i8 1, ptr %defer_kvm_irq_routing.i, align 8
  %3 = load ptr, ptr @kvm_state, align 8
  store ptr %3, ptr @vfio_route_change, align 8
  store i32 0, ptr getelementptr inbounds nuw (i8, ptr @vfio_route_change, i64 8), align 8
  %call1 = tail call i32 @msix_set_vector_notifiers(ptr noundef nonnull %vdev, ptr noundef nonnull @vfio_msix_vector_use, ptr noundef nonnull @vfio_msix_vector_release, ptr noundef null) #23
  %tobool.not = icmp eq i32 %call1, 0
  br i1 %tobool.not, label %if.end, label %if.then

if.then:                                          ; preds = %vfio_prepare_kvm_msi_virq_batch.exit
  tail call void (ptr, ...) @error_report(ptr noundef nonnull @.str.50) #23
  br label %if.end

if.end:                                           ; preds = %if.then, %vfio_prepare_kvm_msi_virq_batch.exit
  tail call fastcc void @vfio_commit_kvm_msi_virq_batch(ptr noundef nonnull %vdev)
  %nr_vectors = getelementptr inbounds nuw i8, ptr %vdev, i64 2880
  %4 = load i32, ptr %nr_vectors, align 16
  %tobool2.not = icmp eq i32 %4, 0
  br i1 %tobool2.not, label %if.else, label %if.then3

if.then3:                                         ; preds = %if.end
  %call4 = tail call fastcc i32 @vfio_enable_vectors(ptr noundef nonnull %vdev, i1 noundef zeroext true)
  %tobool5.not = icmp eq i32 %call4, 0
  br i1 %tobool5.not, label %if.end12, label %if.then6

if.then6:                                         ; preds = %if.then3
  tail call void (ptr, ...) @error_report(ptr noundef nonnull @.str.51, i32 noundef %call4) #23
  br label %if.end12

if.else:                                          ; preds = %if.end
  %call.i = tail call noalias dereferenceable_or_null(24) ptr @g_malloc0(i64 noundef 24) #26
  store i32 24, ptr %call.i, align 4
  %flags.i = getelementptr inbounds nuw i8, ptr %call.i, i64 4
  store i32 36, ptr %flags.i, align 4
  %index.i = getelementptr inbounds nuw i8, ptr %call.i, i64 8
  store i32 2, ptr %index.i, align 4
  %start.i = getelementptr inbounds nuw i8, ptr %call.i, i64 12
  store i32 0, ptr %start.i, align 4
  %count.i = getelementptr inbounds nuw i8, ptr %call.i, i64 16
  store i32 1, ptr %count.i, align 4
  %data.i = getelementptr inbounds nuw i8, ptr %call.i, i64 20
  store i32 -1, ptr %data.i, align 4
  %fd2.i = getelementptr inbounds nuw i8, ptr %vdev, i64 2696
  %5 = load i32, ptr %fd2.i, align 8
  %call3.i = tail call i32 (i32, i64, ...) @ioctl(i32 noundef %5, i64 noundef 15214, ptr noundef nonnull %call.i) #23
  tail call void @g_free(ptr noundef nonnull %call.i) #23
  %tobool9.not = icmp eq i32 %call3.i, 0
  br i1 %tobool9.not, label %if.end12, label %if.then10

if.then10:                                        ; preds = %if.else
  tail call void (ptr, ...) @error_report(ptr noundef nonnull @.str.52, i32 noundef %call3.i) #23
  br label %if.end12

if.end12:                                         ; preds = %if.else, %if.then10, %if.then3, %if.then6
  %name = getelementptr inbounds nuw i8, ptr %vdev, i64 2680
  %6 = load ptr, ptr %name, align 8
  call void @llvm.lifetime.start.p0(i64 16, ptr nonnull %_now.i.i)
  %7 = load i32, ptr @trace_events_enabled_count, align 4
  %tobool.i.i = icmp ne i32 %7, 0
  %8 = load i16, ptr @_TRACE_VFIO_MSIX_ENABLE_DSTATE, align 2
  %tobool4.i.i = icmp ne i16 %8, 0
  %or.cond.i.i = select i1 %tobool.i.i, i1 %tobool4.i.i, i1 false
  br i1 %or.cond.i.i, label %land.lhs.true5.i.i, label %trace_vfio_msix_enable.exit

land.lhs.true5.i.i:                               ; preds = %if.end12
  %9 = load i32, ptr @qemu_loglevel, align 4
  %and.i.i.i = and i32 %9, 32768
  %cmp.i.not.i.i = icmp eq i32 %and.i.i.i, 0
  br i1 %cmp.i.not.i.i, label %trace_vfio_msix_enable.exit, label %if.then.i.i

if.then.i.i:                                      ; preds = %land.lhs.true5.i.i
  %10 = load i8, ptr @message_with_timestamp, align 1
  %tobool7.i.i = trunc i8 %10 to i1
  br i1 %tobool7.i.i, label %if.then8.i.i, label %if.else.i.i

if.then8.i.i:                                     ; preds = %if.then.i.i
  %call9.i.i = call i32 @gettimeofday(ptr noundef nonnull %_now.i.i, ptr noundef null) #23
  %call10.i.i = tail call i32 @qemu_get_thread_id() #23
  %11 = load i64, ptr %_now.i.i, align 8
  %tv_usec.i.i = getelementptr inbounds nuw i8, ptr %_now.i.i, i64 8
  %12 = load i64, ptr %tv_usec.i.i, align 8
  tail call void (ptr, ...) @qemu_log(ptr noundef nonnull @.str.59, i32 noundef %call10.i.i, i64 noundef %11, i64 noundef %12, ptr noundef %6) #23
  br label %trace_vfio_msix_enable.exit

if.else.i.i:                                      ; preds = %if.then.i.i
  tail call void (ptr, ...) @qemu_log(ptr noundef nonnull @.str.60, ptr noundef %6) #23
  br label %trace_vfio_msix_enable.exit

trace_vfio_msix_enable.exit:                      ; preds = %if.end12, %land.lhs.true5.i.i, %if.then8.i.i, %if.else.i.i
  call void @llvm.lifetime.end.p0(i64 16, ptr nonnull %_now.i.i)
  ret void
}